target datalayout = "e-m:e-p270:32:32-p271:32:32-p272:64:64-i64:64-i128:128-f80:128-n8:16:32:64-S128"
target triple = "x86_64-pc-linux-gnu"

%struct.ssl_connection_st = type { %struct.ssl_st, ptr, i32, ptr, ptr, ptr, i32, ptr, i32, i32, i32, i32, %struct.OSSL_TIME, %struct.OSSL_TIME, %struct.ossl_statem_st, i32, ptr, ptr, i64, i64, i64, %struct.ossl_quic_tls_callbacks_st, ptr, ptr, %struct.anon, ptr, ptr, ptr, i32, ptr, %struct.ssl_dane_st, ptr, ptr, ptr, ptr, i32, [64 x i8], [64 x i8], [64 x i8], [64 x i8], [64 x i8], [64 x i8], [64 x i8], [64 x i8], [64 x i8], [64 x i8], [64 x i8], [64 x i8], ptr, [64 x i8], i64, i32, i64, [32 x i8], ptr, ptr, ptr, i64, ptr, [32 x i8], i64, i32, ptr, ptr, i32, i32, ptr, ptr, ptr, ptr, ptr, i64, ptr, ptr, i64, i32, i32, i32, i64, i32, i32, i64, i64, i64, %struct.anon.1, ptr, i32, ptr, ptr, ptr, i32, ptr, ptr, ptr, i32, i32, i32, i32, ptr, i64, i32, ptr, %struct.srp_ctx_st, ptr, %struct.record_layer_st, ptr, ptr, ptr, ptr, i64, i32, i32, i32, i64, i64, i64, ptr, ptr, ptr, ptr, ptr, i64, ptr, i64, ptr, i64 }
%struct.ssl_st = type { i32, ptr, ptr, ptr, %struct.CRYPTO_REF_COUNT, ptr, %struct.crypto_ex_data_st }
%struct.CRYPTO_REF_COUNT = type { i32 }
%struct.crypto_ex_data_st = type { ptr, ptr }
%struct.OSSL_TIME = type { i64 }
%struct.ossl_statem_st = type { i32, i32, i32, i32, i32, i32, i32, i32, i32, i32, i32, i32, i32, ptr, ptr, ptr, i8 }
%struct.ossl_quic_tls_callbacks_st = type { ptr, ptr, ptr, ptr, ptr, ptr }
%struct.anon = type { i64, [32 x i8], [32 x i8], ptr, ptr, i32, i32, i32, i32, [2 x i8], i32, i32, i32, i32, %struct.anon.0, [64 x i8], i64, [64 x i8], i64, i32, i32, ptr, i64, ptr, i64, i32, i8, i8, i16, ptr, i16 }
%struct.anon.0 = type { [128 x i8], i64, [128 x i8], i64, i64, i32, ptr, ptr, [4 x ptr], [4 x i16], i64, i32, ptr, i64, ptr, i64, ptr, ptr, ptr, i32, i64, ptr, i32, ptr, i64, ptr, i64, ptr, i64, ptr, ptr, ptr, ptr, i64, i64, ptr, ptr, i32, i32, i32, i32 }
%struct.ssl_dane_st = type { ptr, ptr, ptr, ptr, ptr, i32, i32, i32, i64 }
%struct.anon.1 = type { [29 x i8], ptr, ptr, ptr, i32, ptr, i16, i32, %struct.anon.2, i32, i32, i64, ptr, i64, ptr, i64, ptr, i64, ptr, i64, ptr, i64, ptr, ptr, ptr, ptr, ptr, ptr, ptr, i64, ptr, i64, i32, i32, i32, i32, ptr, i64, i32, i8, i32, [4 x i32], i32, i8, i8, i8, i8 }
%struct.anon.2 = type { ptr, ptr, ptr, i64 }
%struct.srp_ctx_st = type { ptr, ptr, ptr, ptr, ptr, ptr, ptr, ptr, ptr, ptr, ptr, ptr, ptr, ptr, i32, i64 }
%struct.record_layer_st = type { ptr, ptr, ptr, ptr, ptr, ptr, ptr, ptr, i64, i32, i64, [4 x i8], i64, i64, i8, ptr, i32, ptr, ptr, ptr, i64, i64, i64, i64, [32 x %struct.tls_record_st] }
%struct.tls_record_st = type { ptr, i32, i8, ptr, ptr, i64, i64, i16, [8 x i8] }
%struct.ssl_method_st = type { i32, i32, i64, ptr, ptr, ptr, ptr, ptr, ptr, ptr, ptr, ptr, ptr, ptr, ptr, ptr, ptr, ptr, ptr, ptr, ptr, ptr, ptr, ptr, ptr, ptr, ptr, ptr, ptr, ptr, ptr, ptr }
%struct.ssl3_enc_method = type { ptr, ptr, ptr, ptr, ptr, i64, ptr, i64, ptr, ptr, i32, ptr, ptr, ptr }
%struct.PACKET = type { ptr, i64 }

@.str = private unnamed_addr constant [36 x i8] c"../openssl/ssl/statem/statem_clnt.c\00", align 1
@__func__.tls_process_hello_req = private unnamed_addr constant [22 x i8] c"tls_process_hello_req\00", align 1

; Function Attrs: inlinehint nounwind uwtable
define internal i64 @PACKET_remaining(ptr noundef %0) #2 {
  %2 = alloca ptr, align 8
  store ptr %0, ptr %2, align 8, !tbaa !125
  %3 = load ptr, ptr %2, align 8, !tbaa !125
  %4 = getelementptr inbounds nuw %struct.PACKET, ptr %3, i32 0, i32 1
  %5 = load i64, ptr %4, align 8, !tbaa !235
  ret i64 %5
}

; Function Attrs: nounwind uwtable
define i32 @tls_process_hello_req(ptr noundef %0, ptr noundef %1) #0 {
  %3 = alloca i32, align 4
  %4 = alloca ptr, align 8
  %5 = alloca ptr, align 8
  %6 = alloca ptr, align 8
  %7 = alloca i32, align 4
  store ptr %0, ptr %4, align 8, !tbaa !3
  store ptr %1, ptr %5, align 8, !tbaa !125
  call void @llvm.lifetime.start.p0(i64 8, ptr %6) #8
  %8 = load ptr, ptr %4, align 8, !tbaa !3
  %9 = getelementptr inbounds nuw %struct.ssl_connection_st, ptr %8, i32 0, i32 0
  store ptr %9, ptr %6, align 8, !tbaa !110
  %10 = load ptr, ptr %5, align 8, !tbaa !125
  %11 = call i64 @PACKET_remaining(ptr noundef %10)
  %12 = icmp ugt i64 %11, 0
  br i1 %12, label %13, label %15

13:                                               ; preds = %2
  call void @ERR_new()
  call void @ERR_set_debug(ptr noundef @.str, i32 noundef 4007, ptr noundef @__func__.tls_process_hello_req)
  %14 = load ptr, ptr %4, align 8, !tbaa !3
  call void (ptr, i32, i32, ptr, ...) @ossl_statem_fatal(ptr noundef %14, i32 noundef 50, i32 noundef 159, ptr noundef null)
  store i32 0, ptr %3, align 4
  store i32 1, ptr %7, align 4
  br label %42

15:                                               ; preds = %2
  %16 = load ptr, ptr %4, align 8, !tbaa !3
  %17 = getelementptr inbounds nuw %struct.ssl_connection_st, ptr %16, i32 0, i32 74
  %18 = load i64, ptr %17, align 8, !tbaa !101
  %19 = and i64 %18, 1073741824
  %20 = icmp ne i64 %19, 0
  br i1 %20, label %21, label %24

21:                                               ; preds = %15
  %22 = load ptr, ptr %4, align 8, !tbaa !3
  %23 = call i32 @ssl3_send_alert(ptr noundef %22, i32 noundef 1, i32 noundef 100)
  store i32 1, ptr %3, align 4
  store i32 1, ptr %7, align 4
  br label %42

24:                                               ; preds = %15
  %25 = load ptr, ptr %4, align 8, !tbaa !3
  %26 = getelementptr inbounds nuw %struct.ssl_connection_st, ptr %25, i32 0, i32 0
  %27 = getelementptr inbounds nuw %struct.ssl_st, ptr %26, i32 0, i32 3
  %28 = load ptr, ptr %27, align 8, !tbaa !12
  %29 = getelementptr inbounds nuw %struct.ssl_method_st, ptr %28, i32 0, i32 28
  %30 = load ptr, ptr %29, align 8, !tbaa !73
  %31 = getelementptr inbounds nuw %struct.ssl3_enc_method, ptr %30, i32 0, i32 10
  %32 = load i32, ptr %31, align 8, !tbaa !76
  %33 = and i32 %32, 8
  %34 = icmp ne i32 %33, 0
  br i1 %34, label %35, label %38

35:                                               ; preds = %24
  %36 = load ptr, ptr %6, align 8, !tbaa !110
  %37 = call i32 @SSL_renegotiate(ptr noundef %36)
  br label %41

38:                                               ; preds = %24
  %39 = load ptr, ptr %6, align 8, !tbaa !110
  %40 = call i32 @SSL_renegotiate_abbreviated(ptr noundef %39)
  br label %41

41:                                               ; preds = %38, %35
  store i32 1, ptr %3, align 4
  store i32 1, ptr %7, align 4
  br label %42

42:                                               ; preds = %41, %21, %13
  call void @llvm.lifetime.end.p0(i64 8, ptr %6) #8
  %43 = load i32, ptr %3, align 4
  ret i32 %43
}