; Function Attrs: nounwind uwtable
define range(i32 0, 2) i32 @tls_process_hello_req(ptr noundef %0, ptr noundef readonly captures(none) %1) local_unnamed_addr #0 {
  %3 = getelementptr i8, ptr %1, i64 8
  %.val = load i64, ptr %3, align 8, !tbaa !176
  %.not = icmp eq i64 %.val, 0
  br i1 %.not, label %5, label %4

4:                                                ; preds = %2
  tail call void @ERR_new() #8
  tail call void @ERR_set_debug(ptr noundef nonnull @.str, i32 noundef 4007, ptr noundef nonnull @__func__.tls_process_hello_req) #8
  tail call void (ptr, i32, i32, ptr, ...) @ossl_statem_fatal(ptr noundef %0, i32 noundef 50, i32 noundef 159, ptr noundef null) #8
  br label %23

5:                                                ; preds = %2
  %6 = getelementptr inbounds nuw i8, ptr %0, i64 2480
  %7 = load i64, ptr %6, align 8, !tbaa !98
  %8 = and i64 %7, 1073741824
  %.not8 = icmp eq i64 %8, 0
  br i1 %.not8, label %11, label %9

9:                                                ; preds = %5
  %10 = tail call i32 @ssl3_send_alert(ptr noundef nonnull %0, i32 noundef 1, i32 noundef 100) #8
  br label %23

11:                                               ; preds = %5
  %12 = getelementptr inbounds nuw i8, ptr %0, i64 24
  %13 = load ptr, ptr %12, align 8, !tbaa !3
  %14 = getelementptr inbounds nuw i8, ptr %13, i64 216
  %15 = load ptr, ptr %14, align 8, !tbaa !69
  %16 = getelementptr inbounds nuw i8, ptr %15, i64 80
  %17 = load i32, ptr %16, align 8, !tbaa !72
  %18 = and i32 %17, 8
  %.not9 = icmp eq i32 %18, 0
  br i1 %.not9, label %21, label %19

19:                                               ; preds = %11
  %20 = tail call i32 @SSL_renegotiate(ptr noundef nonnull %0) #8
  br label %23

21:                                               ; preds = %11
  %22 = tail call i32 @SSL_renegotiate_abbreviated(ptr noundef nonnull %0) #8
  br label %23

23:                                               ; preds = %19, %21, %9, %4
  %.0 = phi i32 [ 0, %4 ], [ 1, %9 ], [ 1, %21 ], [ 1, %19 ]
  ret i32 %.0
}